; Function Attrs: mustprogress nounwind uwtable
define hidden void @_ZN21ClassUnloadingContextD2Ev(ptr nocapture noundef nonnull readonly align 8 dereferenceable(26) %0) unnamed_addr #0 align 2 {
  %2 = getelementptr inbounds i8, ptr %0, i64 8
  %3 = load i32, ptr %2, align 8
  %.not = icmp eq i32 %3, 0
  br i1 %.not, label %._crit_edge, label %.lr.ph

.lr.ph:                                           ; preds = %1
  %4 = getelementptr inbounds i8, ptr %0, i64 16
  br label %5

5:                                                ; preds = %.lr.ph, %18
  %6 = phi i32 [ %3, %.lr.ph ], [ %19, %18 ]
  %indvars.iv = phi i64 [ 0, %.lr.ph ], [ %indvars.iv.next, %18 ]
  %7 = load ptr, ptr %4, align 8
  %8 = getelementptr inbounds ptr, ptr %7, i64 %indvars.iv
  %9 = load ptr, ptr %8, align 8
  %10 = icmp eq ptr %9, null
  br i1 %10, label %18, label %11

11:                                               ; preds = %5
  store i32 0, ptr %9, align 4
  %12 = getelementptr inbounds i8, ptr %9, i64 4
  %13 = load i32, ptr %12, align 4
  %14 = icmp eq i32 %13, 0
  br i1 %14, label %_ZN18GrowableArrayCHeapIP7nmethodL8MEMFLAGS5EED2Ev.exit, label %.loopexit.i.i.i

.loopexit.i.i.i:                                  ; preds = %11
  %15 = getelementptr inbounds i8, ptr %9, i64 8
  %16 = load ptr, ptr %15, align 8
  store i32 0, ptr %12, align 4
  %.not.i.i.i = icmp eq ptr %16, null
  br i1 %.not.i.i.i, label %17, label %.loopexit.thread.i.i.i

.loopexit.thread.i.i.i:                           ; preds = %.loopexit.i.i.i
  tail call void @_ZN27GrowableArrayCHeapAllocator10deallocateEPv(ptr noundef nonnull %16) #9
  br label %17

17:                                               ; preds = %.loopexit.thread.i.i.i, %.loopexit.i.i.i
  store ptr null, ptr %15, align 8
  br label %_ZN18GrowableArrayCHeapIP7nmethodL8MEMFLAGS5EED2Ev.exit

_ZN18GrowableArrayCHeapIP7nmethodL8MEMFLAGS5EED2Ev.exit: ; preds = %11, %17
  tail call void @_ZN6AnyObjdlEPv(ptr noundef nonnull %9) #9
  %.pre = load i32, ptr %2, align 8
  br label %18

18:                                               ; preds = %5, %_ZN18GrowableArrayCHeapIP7nmethodL8MEMFLAGS5EED2Ev.exit
  %19 = phi i32 [ %6, %5 ], [ %.pre, %_ZN18GrowableArrayCHeapIP7nmethodL8MEMFLAGS5EED2Ev.exit ]
  %indvars.iv.next = add nuw nsw i64 %indvars.iv, 1
  %20 = zext i32 %19 to i64
  %21 = icmp ult i64 %indvars.iv.next, %20
  br i1 %21, label %5, label %._crit_edge, !llvm.loop !8

._crit_edge:                                      ; preds = %18, %1
  %22 = getelementptr inbounds i8, ptr %0, i64 16
  %23 = load ptr, ptr %22, align 8
  tail call void @_Z8FreeHeapPv(ptr noundef %23) #9
  store ptr null, ptr @_ZN21ClassUnloadingContext8_contextE, align 8
  ret void
}